
/tmp/hsm2.c.elf:     file format elf32-msp430


Disassembly of section int_section:

0000ff00 <INT>:
    ff00:	30 41       	ret			

Disassembly of section .text:

0000c000 <__watchdog_support>:
    c000:	55 42 20 01 	mov.b	&0x0120,r5	
    c004:	35 d0 08 5a 	bis	#23048,	r5	;#0x5a08
    c008:	82 45 00 02 	mov	r5,	&0x0200	

0000c00c <__init_stack>:
    c00c:	31 40 00 04 	mov	#1024,	r1	;#0x0400

0000c010 <__do_copy_data>:
    c010:	3f 40 00 00 	mov	#0,	r15	;#0x0000
    c014:	0f 93       	tst	r15		
    c016:	08 24       	jz	$+18     	;abs 0xc028
    c018:	92 42 00 02 	mov	&0x0200,&0x0120	
    c01c:	20 01 
    c01e:	2f 83       	decd	r15		
    c020:	9f 4f 60 c1 	mov	-16032(r15),512(r15);0xc160(r15), 0x0200(r15)
    c024:	00 02 
    c026:	f8 23       	jnz	$-14     	;abs 0xc018

0000c028 <__do_clear_bss>:
    c028:	3f 40 00 00 	mov	#0,	r15	;#0x0000
    c02c:	0f 93       	tst	r15		
    c02e:	07 24       	jz	$+16     	;abs 0xc03e
    c030:	92 42 00 02 	mov	&0x0200,&0x0120	
    c034:	20 01 
    c036:	1f 83       	dec	r15		
    c038:	cf 43 00 02 	mov.b	#0,	512(r15);r3 As==00, 0x0200(r15)
    c03c:	f9 23       	jnz	$-12     	;abs 0xc030

0000c03e <main>:
    c03e:	04 41       	mov	r1,	r4	
    c040:	24 53       	incd	r4		
    c042:	b0 12 52 c0 	call	#0xc052	
    c046:	0f 43       	clr	r15		

0000c048 <__stop_progExec__>:
    c048:	32 d0 f0 00 	bis	#240,	r2	;#0x00f0
    c04c:	fd 3f       	jmp	$-4      	;abs 0xc048

0000c04e <__ctors_end>:
    c04e:	30 40 12 c1 	br	#0xc112	

0000c052 <login>:
    c052:	04 12       	push	r4		
    c054:	04 41       	mov	r1,	r4	
    c056:	24 53       	incd	r4		
    c058:	31 50 f6 ff 	add	#-10,	r1	;#0xfff6
    c05c:	3f 40 14 c1 	mov	#-16108,r15	;#0xc114
    c060:	b0 12 e6 c0 	call	#0xc0e6	
    c064:	3e 40 14 00 	mov	#20,	r14	;#0x0014
    c068:	0f 44       	mov	r4,	r15	
    c06a:	3f 50 f4 ff 	add	#-12,	r15	;#0xfff4
    c06e:	b0 12 9a c0 	call	#0xc09a	
    c072:	0f 44       	mov	r4,	r15	
    c074:	3f 50 f4 ff 	add	#-12,	r15	;#0xfff4
    c078:	b0 12 be c0 	call	#0xc0be	
    c07c:	0f 93       	tst	r15		
    c07e:	05 24       	jz	$+12     	;abs 0xc08a
    c080:	3f 40 33 c1 	mov	#-16077,r15	;#0xc133
    c084:	b0 12 e6 c0 	call	#0xc0e6	
    c088:	04 3c       	jmp	$+10     	;abs 0xc092
    c08a:	3f 40 43 c1 	mov	#-16061,r15	;#0xc143
    c08e:	b0 12 e6 c0 	call	#0xc0e6	
    c092:	31 50 0a 00 	add	#10,	r1	;#0x000a
    c096:	34 41       	pop	r4		
    c098:	30 41       	ret			

0000c09a <gets>:
    c09a:	0e 12       	push	r14		
    c09c:	0f 12       	push	r15		
    c09e:	23 12       	push	#2		;r3 As==10
    c0a0:	b0 12 00 ff 	call	#0xff00	
    c0a4:	31 50 06 00 	add	#6,	r1	;#0x0006
    c0a8:	30 41       	ret			

0000c0aa <putchar>:
    c0aa:	0b 12       	push	r11		
    c0ac:	0b 4f       	mov	r15,	r11	
    c0ae:	0f 12       	push	r15		
    c0b0:	03 12       	push	#0		;r3 As==00
    c0b2:	b0 12 00 ff 	call	#0xff00	
    c0b6:	21 52       	add	#4,	r1	;r2 As==10
    c0b8:	0f 4b       	mov	r11,	r15	
    c0ba:	3b 41       	pop	r11		
    c0bc:	30 41       	ret			

0000c0be <check_password_hsm2>:
    c0be:	04 12       	push	r4		
    c0c0:	04 41       	mov	r1,	r4	
    c0c2:	24 53       	incd	r4		
    c0c4:	21 83       	decd	r1		
    c0c6:	84 43 fc ff 	mov	#0,	-4(r4)	;r3 As==00, 0xfffc(r4)
    c0ca:	3e 40 fc ff 	mov	#-4,	r14	;#0xfffc
    c0ce:	0e 54       	add	r4,	r14	
    c0d0:	0e 12       	push	r14		
    c0d2:	0f 12       	push	r15		
    c0d4:	30 12 7e 00 	push	#126		;#0x007e
    c0d8:	b0 12 00 ff 	call	#0xff00	
    c0dc:	1f 44 fc ff 	mov	-4(r4),	r15	;0xfffc(r4)
    c0e0:	31 52       	add	#8,	r1	;r2 As==11
    c0e2:	34 41       	pop	r4		
    c0e4:	30 41       	ret			

0000c0e6 <puts>:
    c0e6:	0b 12       	push	r11		
    c0e8:	0b 4f       	mov	r15,	r11	
    c0ea:	6f 4b       	mov.b	@r11,	r15	
    c0ec:	4f 93       	tst.b	r15		
    c0ee:	06 24       	jz	$+14     	;abs 0xc0fc
    c0f0:	1b 53       	inc	r11		
    c0f2:	8f 11       	sxt	r15		
    c0f4:	b0 12 aa c0 	call	#0xc0aa	
    c0f8:	0f 93       	tst	r15		
    c0fa:	f7 37       	jge	$-16     	;abs 0xc0ea
    c0fc:	cb 93 00 00 	tst.b	0(r11)		;0x0000(r11)
    c100:	05 20       	jnz	$+12     	;abs 0xc10c
    c102:	3f 40 0a 00 	mov	#10,	r15	;#0x000a
    c106:	b0 12 aa c0 	call	#0xc0aa	
    c10a:	01 3c       	jmp	$+4      	;abs 0xc10e
    c10c:	3f 43       	mov	#-1,	r15	;r3 As==11
    c10e:	3b 41       	pop	r11		
    c110:	30 41       	ret			

0000c112 <_unexpected_>:
    c112:	00 13       	reti			

Disassembly of section .vectors:

0000ffe0 <__ivtbl_16>:
    ffe0:	4e c0 4e c0 4e c0 4e c0 4e c0 4e c0 4e c0 4e c0     N.N.N.N.N.N.N.N.
    fff0:	4e c0 4e c0 4e c0 4e c0 4e c0 4e c0 4e c0 00 c0     N.N.N.N.N.N.N...
