
/tmp/no_hardcoded_password.c.elf:     file format elf32-msp430


Disassembly of section int_section:

0000ff00 <INT>:
    ff00:	30 41       	ret			

Disassembly of section .text:

0000c000 <__watchdog_support>:
    c000:	55 42 20 01 	mov.b	&0x0120,r5	
    c004:	35 d0 08 5a 	bis	#23048,	r5	;#0x5a08
    c008:	82 45 00 02 	mov	r5,	&0x0200	

0000c00c <__init_stack>:
    c00c:	31 40 00 04 	mov	#1024,	r1	;#0x0400

0000c010 <__do_copy_data>:
    c010:	3f 40 00 00 	mov	#0,	r15	;#0x0000
    c014:	0f 93       	tst	r15		
    c016:	08 24       	jz	$+18     	;abs 0xc028
    c018:	92 42 00 02 	mov	&0x0200,&0x0120	
    c01c:	20 01 
    c01e:	2f 83       	decd	r15		
    c020:	9f 4f 68 c1 	mov	-16024(r15),512(r15);0xc168(r15), 0x0200(r15)
    c024:	00 02 
    c026:	f8 23       	jnz	$-14     	;abs 0xc018

0000c028 <__do_clear_bss>:
    c028:	3f 40 00 00 	mov	#0,	r15	;#0x0000
    c02c:	0f 93       	tst	r15		
    c02e:	07 24       	jz	$+16     	;abs 0xc03e
    c030:	92 42 00 02 	mov	&0x0200,&0x0120	
    c034:	20 01 
    c036:	1f 83       	dec	r15		
    c038:	cf 43 00 02 	mov.b	#0,	512(r15);r3 As==00, 0x0200(r15)
    c03c:	f9 23       	jnz	$-12     	;abs 0xc030

0000c03e <main>:
    c03e:	04 41       	mov	r1,	r4	
    c040:	24 53       	incd	r4		
    c042:	31 50 ec ff 	add	#-20,	r1	;#0xffec
    c046:	3f 40 1c c1 	mov	#-16100,r15	;#0xc11c
    c04a:	b0 12 ee c0 	call	#0xc0ee	
    c04e:	3e 40 14 00 	mov	#20,	r14	;#0x0014
    c052:	0f 44       	mov	r4,	r15	
    c054:	3f 50 ea ff 	add	#-22,	r15	;#0xffea
    c058:	b0 12 be c0 	call	#0xc0be	
    c05c:	0f 44       	mov	r4,	r15	
    c05e:	3f 50 ea ff 	add	#-22,	r15	;#0xffea
    c062:	b0 12 90 c0 	call	#0xc090	
    c066:	0f 93       	tst	r15		
    c068:	07 24       	jz	$+16     	;abs 0xc078
    c06a:	b0 12 e2 c0 	call	#0xc0e2	
    c06e:	3f 40 3b c1 	mov	#-16069,r15	;#0xc13b
    c072:	b0 12 ee c0 	call	#0xc0ee	
    c076:	04 3c       	jmp	$+10     	;abs 0xc080
    c078:	3f 40 4b c1 	mov	#-16053,r15	;#0xc14b
    c07c:	b0 12 ee c0 	call	#0xc0ee	
    c080:	0f 43       	clr	r15		
    c082:	31 50 14 00 	add	#20,	r1	;#0x0014

0000c086 <__stop_progExec__>:
    c086:	32 d0 f0 00 	bis	#240,	r2	;#0x00f0
    c08a:	fd 3f       	jmp	$-4      	;abs 0xc086

0000c08c <__ctors_end>:
    c08c:	30 40 1a c1 	br	#0xc11a	

0000c090 <check_password>:
    c090:	cf 93 05 00 	tst.b	5(r15)		;0x0005(r15)
    c094:	10 20       	jnz	$+34     	;abs 0xc0b6
    c096:	ff 90 61 00 	cmp.b	#97,	0(r15)	;#0x0061, 0x0000(r15)
    c09a:	00 00 
    c09c:	0e 20       	jnz	$+30     	;abs 0xc0ba
    c09e:	5e 4f 01 00 	mov.b	1(r15),	r14	;0x0001(r15)
    c0a2:	5e ef 02 00 	xor.b	2(r15),	r14	;0x0002(r15)
    c0a6:	5e ef 03 00 	xor.b	3(r15),	r14	;0x0003(r15)
    c0aa:	1f 43       	mov	#1,	r15	;r3 As==01
    c0ac:	7e 90 94 ff 	cmp.b	#-108,	r14	;#0xff94
    c0b0:	05 24       	jz	$+12     	;abs 0xc0bc
    c0b2:	0f 43       	clr	r15		
    c0b4:	30 41       	ret			
    c0b6:	0f 43       	clr	r15		
    c0b8:	30 41       	ret			
    c0ba:	0f 43       	clr	r15		
    c0bc:	30 41       	ret			

0000c0be <gets>:
    c0be:	0e 12       	push	r14		
    c0c0:	0f 12       	push	r15		
    c0c2:	23 12       	push	#2		;r3 As==10
    c0c4:	b0 12 00 ff 	call	#0xff00	
    c0c8:	31 50 06 00 	add	#6,	r1	;#0x0006
    c0cc:	30 41       	ret			

0000c0ce <putchar>:
    c0ce:	0b 12       	push	r11		
    c0d0:	0b 4f       	mov	r15,	r11	
    c0d2:	0f 12       	push	r15		
    c0d4:	03 12       	push	#0		;r3 As==00
    c0d6:	b0 12 00 ff 	call	#0xff00	
    c0da:	21 52       	add	#4,	r1	;r2 As==10
    c0dc:	0f 4b       	mov	r11,	r15	
    c0de:	3b 41       	pop	r11		
    c0e0:	30 41       	ret			

0000c0e2 <unlock_door>:
    c0e2:	30 12 7f 00 	push	#127		;#0x007f
    c0e6:	b0 12 00 ff 	call	#0xff00	
    c0ea:	21 53       	incd	r1		
    c0ec:	30 41       	ret			

0000c0ee <puts>:
    c0ee:	0b 12       	push	r11		
    c0f0:	0b 4f       	mov	r15,	r11	
    c0f2:	6f 4b       	mov.b	@r11,	r15	
    c0f4:	4f 93       	tst.b	r15		
    c0f6:	06 24       	jz	$+14     	;abs 0xc104
    c0f8:	1b 53       	inc	r11		
    c0fa:	8f 11       	sxt	r15		
    c0fc:	b0 12 ce c0 	call	#0xc0ce	
    c100:	0f 93       	tst	r15		
    c102:	f7 37       	jge	$-16     	;abs 0xc0f2
    c104:	cb 93 00 00 	tst.b	0(r11)		;0x0000(r11)
    c108:	05 20       	jnz	$+12     	;abs 0xc114
    c10a:	3f 40 0a 00 	mov	#10,	r15	;#0x000a
    c10e:	b0 12 ce c0 	call	#0xc0ce	
    c112:	01 3c       	jmp	$+4      	;abs 0xc116
    c114:	3f 43       	mov	#-1,	r15	;r3 As==11
    c116:	3b 41       	pop	r11		
    c118:	30 41       	ret			

0000c11a <_unexpected_>:
    c11a:	00 13       	reti			

Disassembly of section .vectors:

0000ffe0 <__ivtbl_16>:
    ffe0:	8c c0 8c c0 8c c0 8c c0 8c c0 8c c0 8c c0 8c c0     ................
    fff0:	8c c0 8c c0 8c c0 8c c0 8c c0 8c c0 8c c0 00 c0     ................
