
/tmp/tutorial.c.elf:     file format elf32-msp430


Disassembly of section int_section:

0000ff00 <INT>:
    ff00:	30 41       	ret			

Disassembly of section .text:

0000c000 <__watchdog_support>:
    c000:	55 42 20 01 	mov.b	&0x0120,r5	
    c004:	35 d0 08 5a 	bis	#23048,	r5	;#0x5a08
    c008:	82 45 02 02 	mov	r5,	&0x0202	

0000c00c <__init_stack>:
    c00c:	31 40 00 04 	mov	#1024,	r1	;#0x0400

0000c010 <__do_copy_data>:
    c010:	3f 40 02 00 	mov	#2,	r15	;#0x0002
    c014:	0f 93       	tst	r15		
    c016:	08 24       	jz	$+18     	;abs 0xc028
    c018:	92 42 02 02 	mov	&0x0202,&0x0120	
    c01c:	20 01 
    c01e:	2f 83       	decd	r15		
    c020:	9f 4f 8a c1 	mov	-15990(r15),512(r15);0xc18a(r15), 0x0200(r15)
    c024:	00 02 
    c026:	f8 23       	jnz	$-14     	;abs 0xc018

0000c028 <__do_clear_bss>:
    c028:	3f 40 00 00 	mov	#0,	r15	;#0x0000
    c02c:	0f 93       	tst	r15		
    c02e:	07 24       	jz	$+16     	;abs 0xc03e
    c030:	92 42 02 02 	mov	&0x0202,&0x0120	
    c034:	20 01 
    c036:	1f 83       	dec	r15		
    c038:	cf 43 02 02 	mov.b	#0,	514(r15);r3 As==00, 0x0202(r15)
    c03c:	f9 23       	jnz	$-12     	;abs 0xc030

0000c03e <main>:
    c03e:	04 41       	mov	r1,	r4	
    c040:	24 53       	incd	r4		
    c042:	31 50 ec ff 	add	#-20,	r1	;#0xffec
    c046:	3f 40 3e c1 	mov	#-16066,r15	;#0xc13e
    c04a:	b0 12 04 c1 	call	#0xc104	
    c04e:	3e 40 14 00 	mov	#20,	r14	;#0x0014
    c052:	0f 44       	mov	r4,	r15	
    c054:	3f 50 ea ff 	add	#-22,	r15	;#0xffea
    c058:	b0 12 d4 c0 	call	#0xc0d4	
    c05c:	0f 44       	mov	r4,	r15	
    c05e:	3f 50 ea ff 	add	#-22,	r15	;#0xffea
    c062:	b0 12 90 c0 	call	#0xc090	
    c066:	0f 93       	tst	r15		
    c068:	07 24       	jz	$+16     	;abs 0xc078
    c06a:	b0 12 f8 c0 	call	#0xc0f8	
    c06e:	3f 40 5d c1 	mov	#-16035,r15	;#0xc15d
    c072:	b0 12 04 c1 	call	#0xc104	
    c076:	04 3c       	jmp	$+10     	;abs 0xc080
    c078:	3f 40 6d c1 	mov	#-16019,r15	;#0xc16d
    c07c:	b0 12 04 c1 	call	#0xc104	
    c080:	0f 43       	clr	r15		
    c082:	31 50 14 00 	add	#20,	r1	;#0x0014

0000c086 <__stop_progExec__>:
    c086:	32 d0 f0 00 	bis	#240,	r2	;#0x00f0
    c08a:	fd 3f       	jmp	$-4      	;abs 0xc086

0000c08c <__ctors_end>:
    c08c:	30 40 30 c1 	br	#0xc130	

0000c090 <check_password>:
    c090:	04 12       	push	r4		
    c092:	04 41       	mov	r1,	r4	
    c094:	24 53       	incd	r4		
    c096:	21 82       	sub	#4,	r1	;r2 As==10
    c098:	84 4f fc ff 	mov	r15,	-4(r4)	;0xfffc(r4)
    c09c:	84 43 fa ff 	mov	#0,	-6(r4)	;r3 As==00, 0xfffa(r4)
    c0a0:	11 3c       	jmp	$+36     	;abs 0xc0c4
    c0a2:	1f 44 fa ff 	mov	-6(r4),	r15	;0xfffa(r4)
    c0a6:	1f 54 fc ff 	add	-4(r4),	r15	;0xfffc(r4)
    c0aa:	6e 4f       	mov.b	@r15,	r14	
    c0ac:	1d 42 00 02 	mov	&0x0200,r13	
    c0b0:	1f 44 fa ff 	mov	-6(r4),	r15	;0xfffa(r4)
    c0b4:	0f 5d       	add	r13,	r15	
    c0b6:	6f 4f       	mov.b	@r15,	r15	
    c0b8:	4e 9f       	cmp.b	r15,	r14	
    c0ba:	02 24       	jz	$+6      	;abs 0xc0c0
    c0bc:	0f 43       	clr	r15		
    c0be:	07 3c       	jmp	$+16     	;abs 0xc0ce
    c0c0:	94 53 fa ff 	inc	-6(r4)		;0xfffa(r4)
    c0c4:	b4 90 0c 00 	cmp	#12,	-6(r4)	;#0x000c, 0xfffa(r4)
    c0c8:	fa ff 
    c0ca:	eb 3b       	jl	$-40     	;abs 0xc0a2
    c0cc:	1f 43       	mov	#1,	r15	;r3 As==01
    c0ce:	21 52       	add	#4,	r1	;r2 As==10
    c0d0:	34 41       	pop	r4		
    c0d2:	30 41       	ret			

0000c0d4 <gets>:
    c0d4:	0e 12       	push	r14		
    c0d6:	0f 12       	push	r15		
    c0d8:	23 12       	push	#2		;r3 As==10
    c0da:	b0 12 00 ff 	call	#0xff00	
    c0de:	31 50 06 00 	add	#6,	r1	;#0x0006
    c0e2:	30 41       	ret			

0000c0e4 <putchar>:
    c0e4:	0b 12       	push	r11		
    c0e6:	0b 4f       	mov	r15,	r11	
    c0e8:	0f 12       	push	r15		
    c0ea:	03 12       	push	#0		;r3 As==00
    c0ec:	b0 12 00 ff 	call	#0xff00	
    c0f0:	21 52       	add	#4,	r1	;r2 As==10
    c0f2:	0f 4b       	mov	r11,	r15	
    c0f4:	3b 41       	pop	r11		
    c0f6:	30 41       	ret			

0000c0f8 <unlock_door>:
    c0f8:	30 12 7f 00 	push	#127		;#0x007f
    c0fc:	b0 12 00 ff 	call	#0xff00	
    c100:	21 53       	incd	r1		
    c102:	30 41       	ret			

0000c104 <puts>:
    c104:	0b 12       	push	r11		
    c106:	0b 4f       	mov	r15,	r11	
    c108:	6f 4b       	mov.b	@r11,	r15	
    c10a:	4f 93       	tst.b	r15		
    c10c:	06 24       	jz	$+14     	;abs 0xc11a
    c10e:	1b 53       	inc	r11		
    c110:	8f 11       	sxt	r15		
    c112:	b0 12 e4 c0 	call	#0xc0e4	
    c116:	0f 93       	tst	r15		
    c118:	f7 37       	jge	$-16     	;abs 0xc108
    c11a:	cb 93 00 00 	tst.b	0(r11)		;0x0000(r11)
    c11e:	05 20       	jnz	$+12     	;abs 0xc12a
    c120:	3f 40 0a 00 	mov	#10,	r15	;#0x000a
    c124:	b0 12 e4 c0 	call	#0xc0e4	
    c128:	01 3c       	jmp	$+4      	;abs 0xc12c
    c12a:	3f 43       	mov	#-1,	r15	;r3 As==11
    c12c:	3b 41       	pop	r11		
    c12e:	30 41       	ret			

0000c130 <_unexpected_>:
    c130:	00 13       	reti			

Disassembly of section .vectors:

0000ffe0 <__ivtbl_16>:
    ffe0:	8c c0 8c c0 8c c0 8c c0 8c c0 8c c0 8c c0 8c c0     ................
    fff0:	8c c0 8c c0 8c c0 8c c0 8c c0 8c c0 8c c0 00 c0     ................
